(dp1
S'output'
p2
S'missing "pass" in view'
p3
sS'layer'
p4
S'ParserContainer'
p5
sS'code'
p6
S'left_sidebar_enabled,right_sidebar_enabled=False,(\'message\' in globals())\nresponse.write(\'\\n\', escape=False)\nresponse.write(\'<!DOCTYPE html PUBLIC "-//W3C//DTD XHTML 1.0 Strict//EN" "http://www.w3.org/TR/xhtml1/DTD/xhtml1-strict.dtd">\\n<!--\\nDesign by Free CSS Templates\\nhttp://www.freecsstemplates.org\\nReleased for free under a Creative Commons Attribution 2.5 License\\n\\nName       : Pressurized\\nDescription: A two-column, fixed-width design with dark color scheme.\\nVersion    : 1.0\\nReleased   : 20081103\\n\\n-->\\n<html xmlns="http://www.w3.org/1999/xhtml">\\n <head>\\n  <title>\\n   \', escape=False)\nresponse.write(response.title or request.application)\nresponse.write(\'\\n  </title>\\n  \', escape=False)\nresponse.files.append(URL(request.application,\'static\',\'plugin_layouts/layouts/Pressurized/style.css\'))\nresponse.write(\'\\n  \', escape=False)\nresponse.files.append(URL(\'static\',\'plugin_layouts/superfish.js\'))\nresponse.write(\'\\n  \', escape=False)\nresponse.write(\'<script type="text/javascript"><!--\\n    // These variables are used by the web2py_ajax_init function in web2py_ajax.js (which is loaded below).\\n    var w2p_ajax_confirm_message = "\', escape=False)\nresponse.write(T(\'Are you sure you want to delete this object?\'))\nresponse.write(\'";\\n    var w2p_ajax_disable_with_message = "\', escape=False)\nresponse.write(T(\'Working...\'))\nresponse.write(\'";\\n    var w2p_ajax_date_format = "\', escape=False)\nresponse.write(T(\'%Y-%m-%d\'))\nresponse.write(\'";\\n    var w2p_ajax_datetime_format = "\', escape=False)\nresponse.write(T(\'%Y-%m-%d %H:%M:%S\'))\nresponse.write(\'";\\n    var ajax_error_500 = \\\'\', escape=False)\nresponse.write(T.M(\'An error occured, please [[reload %s]] the page\') % URL(args=request.args, vars=request.get_vars))\nresponse.write("\'\\n    //--></script>\\n", escape=False)\nresponse.files.insert(0,URL(\'static\',\'js/jquery.js\'))\nresponse.files.insert(1,URL(\'static\',\'css/calendar.css\'))\nresponse.files.insert(2,URL(\'static\',\'js/calendar.js\'))\nresponse.files.insert(3,URL(\'static\',\'js/web2py.js\'))\nresponse.include_meta()\nresponse.include_files()\nresponse.write(\'\\n\', escape=False)\nresponse.write(\'\\n  <style>\\nul.web2py-menu-vertical { width: 150px; position: relative; top:1em; left:1em;  z-index:30; border:0; margin:0; padding: 0; list-style: none; text-decoration: none;}\\nul.web2py-menu-vertical li { margin:0; padding:0; border:0; width: 150px; background: black; text-align:left;}\\nul.web2py-menu-vertical li a { margin:0; padding: 1px 3px 1px 3px; border:0; width: 144px; color: white; font-size:12px;}\\ndiv.flash { position: fixed; float: right; padding: 10px; top: 10px; right: 30px; opacity: 0.75; margin: 10px 10px 10px 10px; text-align: center; clear: both; color: #fff; font-size: 11pt; text-align: center; vertical-align: middle; cursor: pointer; background: black; border: 2px solid #fff; -moz-border-radius: 5px; -webkit-border-radius: 5px; z-index: 2; }\\ndiv.error { background-color: red; color: white; padding: 3px; }\\n.auth_navbar { text-align:right; z-index:20; position: absolute; top: 2px; right:30px; border:0; padding:0 }\\n  </style>\\n </head>\\n <body>\\n  <!-- start header -->\\n  \', escape=False)\ntry:\n    response.write(auth.navbar(action=URL(\'default\',\'user\')))\nexcept:pass\nresponse.write(\'\\n\\n  <div id="wrapper">\\n   <div id="header">\\n    <div id="logo">\\n     <h1>\\n      \', escape=False)\nresponse.write(response.title or request.application)\nresponse.write(\'\\n     </h1>\\n     <p>\\n      design by\\n      <a href="http://www.freecsstemplates.org/">\\n       Free CSS Templates\\n      </a>\\n     </p>\\n    </div>\\n   </div>\\n   <!-- end #header -->\\n   <div id="menu">\\n    \', escape=False)\nresponse.write(MENU(response.menu,_class=\'web2py-menu\'))\nresponse.write(\'\\n    <script>\\n      jQuery(document).ready(function(){jQuery(\\\'ul.web2py-menu\\\').superfish({delay:400});});\\n    </script>\\n   </div>\\n   <!-- end #menu -->\\n   <div id="page">\\n    <div id="content">\\n     <div class="flash">\', escape=False)\nresponse.write(response.flash or \'\')\nresponse.write(\'</div>\\n     \', escape=False)\nresponse.write(\'\\n\\n\', escape=False)\nresponse.write(\'\\n    <header class="container-fluid background">\\n      <div class="jumbotron text-center">\\n        \', escape=False)\nif response.title:\n    response.write(\'\\n        <h1>\', escape=False)\n    response.write(response.title)\n    response.write(\'\\n          <small>\', escape=False)\n    response.write(response.subtitle or \'\')\n    response.write(\'</small></h1>\\n        \', escape=False)\n    pass\nresponse.write(\'\\n      </div>\\n    </header>\\n\', escape=False)\nresponse.write(\'\\n\\n<!--\', escape=False)\nif \'message\' in globals():\n    response.write(\'\\n<h2>\', escape=False)\n    response.write(message)\n    response.write(\'</h2> --->\\n    \', escape=False)\n    for recepie in recepies:\n        response.write(\'\\n<table>\\n\\n    <a href="#"><tr>\\n        <td>\', escape=False)\n        response.write(recepie.image)\n        response.write(\'</td>\\n        <td>\', escape=False)\n        response.write(recepie.title)\n        response.write(\'</td>\\n        <td>\', escape=False)\n        response.write(recepie.description)\n        response.write(\'</td>\\n        </tr></a>\\n</table>\\n<!--<p class="lead">\', escape=False)\n        response.write(T(\'How did you get here?\'))\n        response.write(\'</p>\\n<ol>\\n  <li>\', escape=False)\n        response.write(T(\'You are successfully running web2py\'))\n        response.write(\'</li>\\n  <li>\', escape=False)\n        response.write(XML(T(\'You visited the url %s\', A(request.env.path_info,_href=request.env.path_info))))\n        response.write(\'</li>\\n  <li>\', escape=False)\n        response.write(XML(T(\'Which called the function %s located in the file %s\',\n        (A(request.function+\'()\',_href=\'#\'),\n        A(\'web2py/applications/%(application)s/controllers/%(controller)s.py\' % request,\n        _href=URL(\'admin\',\'default\',\'peek\', args=(request.application,\'controllers\',request.controller+\'.py\')))))))\n        response.write(\'</li>\\n  <li>\', escape=False)\n        response.write(XML(T(\'The output of the file is a dictionary that was rendered by the view %s\',\n        A(\'web2py/applications/%(application)s/views/%(controller)s/index.html\' % request,\n        _href=URL(\'admin\',\'default\',\'peek\',args=(request.application,\'views\',request.controller,\'index.html\'))))))\n        response.write(\'</li>\\n  <li>\', escape=False)\n        response.write(T(\'You can modify this application and adapt it to your needs\'))\n        response.write(\'</li>\\n</ol>\\n\', escape=False)\n    elif \'content\' in globals():\n        response.write(\'\\n\', escape=False)\n        response.write(content)\n        response.write(\'\\n\', escape=False)\n    else:\n        response.write(\'\\n\', escape=False)\n        response.write(BEAUTIFY(response._vars))\n        response.write(\'\\n\', escape=False)\n        pass\n    response.write(\'\\n-->\\n\', escape=False)\n    response.write(\'\\n<div class="panel panel-info">\\n  <div class="panel-heading"><h3 class="panel-title"><a class="btn-block"\\n      href="\', escape=False)\n    response.write(URL(\'admin\',\'default\',\'index\'))\n    response.write(\'">\\n      <i class="glyphicon glyphicon-cog"></i>\\n      \', escape=False)\n    response.write(T("admin"))\n    response.write(\'\\n    </a></h3></div>\\n  <div class="panel-body">\\n    \', escape=False)\n    response.write(T("Don\'t know what to do?"))\n    response.write(\'\\n  </div>\\n  <ul class="list-group">\\n    <li class="list-group-item">\', escape=False)\n    response.write(A(T("Online examples"), _href=URL(\'examples\',\'default\',\'index\')))\n    response.write(\'</li>\\n    <li class="list-group-item"><a href="http://web2py.com">web2py.com</a></li>\\n    <li class="list-group-item"><a href="http://web2py.com/book">\', escape=False)\n    response.write(T(\'Documentation\'))\n    response.write(\'</a></li>\\n  </ul>\\n</div>\\n\', escape=False)\n    response.write(\'\\n\', escape=False)\n    response.write(\'\\n    </div>\\n    <!-- end #content -->\\n    <div id="sidebar">\\n     <ul>\\n      <li>\\n       <h2>\\n        Aliquam tempus\\n       </h2>\\n       <p>\\n        Mauris vitae nisl nec metus placerat perdiet est. Phasellus dapibus semper urna ornare consectetuer hendrerit.\\n       </p>\\n      </li>\\n      <li>\\n       <h2>\\n        Categories\\n       </h2>\\n       <ul>\\n        <li>\\n         <a href="#">\\n          Uncategorized\\n         </a>\\n         (3)\\n         <span>\\n          Lorem Ipsum Dolor Sit Amit\\n         </span>\\n        </li>\\n        <li>\\n         <a href="#">\\n          Lorem Ipsum\\n         </a>\\n         (42)\\n         <span>\\n          Lorem Ipsum Dolor Sit Amit\\n         </span>\\n        </li>\\n        <li>\\n         <a href="#">\\n          Urna Congue Rutrum\\n         </a>\\n         (28)\\n         <span>\\n          Lorem Ipsum Dolor Sit Amit\\n         </span>\\n        </li>\\n        <li>\\n         <a href="#">\\n          Vivamus Fermentum\\n         </a>\\n         (13)\\n         <span>\\n          Lorem Ipsum Dolor Sit Amit\\n         </span>\\n        </li>\\n       </ul>\\n      </li>\\n      <li>\\n       <h2>\\n        Blogroll\\n       </h2>\\n       <ul>\\n        <li>\\n         <a href="#">\\n          Phasellus Pellentesque\\n         </a>\\n         <span>\\n          Lorem Ipsum Dolor Sit Amit\\n         </span>\\n        </li>\\n        <li>\\n         <a href="#">\\n          Consectetuer Adipiscing\\n         </a>\\n         <span>\\n          Lorem Ipsum Dolor Sit Amit\\n         </span>\\n        </li>\\n        <li>\\n         <a href="#">\\n          Urna Congue Rutrum\\n         </a>\\n         <span>\\n          Lorem Ipsum Dolor Sit Amit\\n         </span>\\n        </li>\\n       </ul>\\n      </li>\\n      <li>\\n       <h2>\\n        Archives\\n       </h2>\\n       <ul>\\n        <li>\\n         <a href="#">\\n          December 2007\\n         </a>\\n         &nbsp;(29)\\n         <span>\\n          Lorem Ipsum Dolor Sit Amit\\n         </span>\\n        </li>\\n        <li>\\n         <a href="#">\\n          November 2007\\n         </a>\\n         &nbsp;(30)\\n         <span>\\n          Lorem Ipsum Dolor Sit Amit\\n         </span>\\n        </li>\\n        <li>\\n         <a href="#">\\n          October 2007\\n         </a>\\n         &nbsp;(31)\\n         <span>\\n          Lorem Ipsum Dolor Sit Amit\\n         </span>\\n        </li>\\n       </ul>\\n      </li>\\n     </ul>\\n    </div>\\n    <!-- end #sidebar -->\\n    <div style="clear: both;">\\n     &nbsp;\\n    </div>\\n   </div>\\n   <!-- end #page -->\\n   <div id="footer">\\n    <p>\\n     Copyright (c) 2008 Sitename.com. All rights reserved. Design by\\n     <a href="http://www.freecsstemplates.org/">\\n      Free CSS Templates\\n     </a>\\n     .\\n    </p>\\n   </div>\\n   <!-- end #footer -->\\n  </div>\\n </body>\\n</html>\\n\', escape=False)'
p7
sS'snapshot'
p8
(dp9
sS'traceback'
p10
S'None\n'
p11
s.