(dp1
S'output'
p2
S"<type 'exceptions.AttributeError'> 'SQLFORM' object has no attribute 'cusotm'"
p3
sS'layer'
p4
S'/home/nidhi/Desktop/web2py/applications/MatrimonyNew/views/default/upload_profile.html'
p5
sS'code'
p6
S'response.write(\'<!DOCTYPE html PUBLIC "-//W3C//DTD XHTML 1.0 Strict//EN" "http://www.w3.org/TR/xhtml1/DTD/xhtml1-strict.dtd">\\n<!--\\nDesign by Free CSS Templates\\nhttp://www.freecsstemplates.org\\nReleased for free under a Creative Commons Attribution 2.5 License\\n\\nName       : Pressurized\\nDescription: A two-column, fixed-width design with dark color scheme.\\nVersion    : 1.0\\nReleased   : 20081103\\n\\n-->\\n<html xmlns="http://www.w3.org/1999/xhtml">\\n <head>\\n  <title>\\n   \', escape=False)\nresponse.write(response.title or request.application)\nresponse.write(\'\\n  </title>\\n  \', escape=False)\nresponse.files.append(URL(request.application,\'static\',\'plugin_layouts/layouts/Pressurized/style.css\'))\nresponse.write(\'\\n  \', escape=False)\nresponse.files.append(URL(\'static\',\'plugin_layouts/superfish.js\'))\nresponse.write(\'\\n  \', escape=False)\nresponse.write(\'<script type="text/javascript"><!--\\n    // These variables are used by the web2py_ajax_init function in web2py_ajax.js (which is loaded below).\\n    var w2p_ajax_confirm_message = "\', escape=False)\nresponse.write(T(\'Are you sure you want to delete this object?\'))\nresponse.write(\'";\\n    var w2p_ajax_disable_with_message = "\', escape=False)\nresponse.write(T(\'Working...\'))\nresponse.write(\'";\\n    var w2p_ajax_date_format = "\', escape=False)\nresponse.write(T(\'%Y-%m-%d\'))\nresponse.write(\'";\\n    var w2p_ajax_datetime_format = "\', escape=False)\nresponse.write(T(\'%Y-%m-%d %H:%M:%S\'))\nresponse.write(\'";\\n    var ajax_error_500 = \\\'\', escape=False)\nresponse.write(T.M(\'An error occured, please [[reload %s]] the page\') % URL(args=request.args, vars=request.get_vars))\nresponse.write("\'\\n    //--></script>\\n", escape=False)\nresponse.files.insert(0,URL(\'static\',\'js/jquery.js\'))\nresponse.files.insert(1,URL(\'static\',\'css/calendar.css\'))\nresponse.files.insert(2,URL(\'static\',\'js/calendar.js\'))\nresponse.files.insert(3,URL(\'static\',\'js/web2py.js\'))\nresponse.include_meta()\nresponse.include_files()\nresponse.write(\'\\n\', escape=False)\nresponse.write(\'\\n  <style>\\nul.web2py-menu-vertical { width: 150px; position: relative; top:1em; left:1em;  z-index:30; border:0; margin:0; padding: 0; list-style: none; text-decoration: none;}\\nul.web2py-menu-vertical li { margin:0; padding:0; border:0; width: 150px; background: black; text-align:left;}\\nul.web2py-menu-vertical li a { margin:0; padding: 1px 3px 1px 3px; border:0; width: 144px; color: white; font-size:12px;}\\ndiv.flash { position: fixed; float: right; padding: 10px; top: 10px; right: 30px; opacity: 0.75; margin: 10px 10px 10px 10px; text-align: center; clear: both; color: #fff; font-size: 11pt; text-align: center; vertical-align: middle; cursor: pointer; background: black; border: 2px solid #fff; -moz-border-radius: 5px; -webkit-border-radius: 5px; z-index: 2; }\\ndiv.error { background-color: red; color: white; padding: 3px; }\\n.auth_navbar { text-align:right; z-index:20; position: absolute; top: 2px; right:30px; border:0; padding:0 }\\n      .auth_navbar a{color:#ffeeee; font-style:bold;font-family:times; font-size:1.4}\\n  </style>\\n </head>\\n <body>\\n  <!-- start header -->\\n     <div style="color:#ffeeee; font-style:bold;font-family:times; font-size:1.4">\', escape=False)\ntry:\n    response.write(auth.navbar(action=URL(\'default\',\'user\')))\nexcept:pass\nresponse.write(\'</div>\\n\\n  <div id="wrapper">\\n   <div id="header">\\n    <div id="logo">\\n     <h1>\\n      \', escape=False)\nresponse.write(response.title or request.application)\nresponse.write(\'\\n     </h1>\\n<!--     <p>\\n      design by\\n      <a href="http://www.freecsstemplates.org/">\\n       Free CSS Templates\\n      </a>\\n     </p> -->\\n    </div>\\n   </div>\\n   <!-- end #header -->\\n   <div id="menu">\\n    \', escape=False)\nresponse.write(MENU(response.menu,_class=\'web2py-menu\'))\nresponse.write(\'\\n    <script>\\n      jQuery(document).ready(function(){jQuery(\\\'ul.web2py-menu\\\').superfish({delay:400});});\\n    </script>\\n   </div>\\n   <!-- end #menu -->\\n   <div id="page">\\n    <div id="content">\\n     <div class="flash">\', escape=False)\nresponse.write(response.flash or \'\')\nresponse.write(\'</div>\\n     \', escape=False)\nresponse.write("\\n<script src=\'static/upload_profile_form.js\'></script>\\n<h1> Upload you profile</h1>\\n", escape=False)\nresponse.write(form.custom.begin)\nresponse.write(\'\\nName: <div>\', escape=False)\nresponse.write(form.custom.widget.name)\nresponse.write(\'</div>\\nGender: <div>\', escape=False)\nresponse.write(form.custom.widget.gender)\nresponse.write(\'</div>\\nImage: <div>\', escape=False)\nresponse.write(form.custom.widget.image7)\nresponse.write(\'</div>\\nImage Optional: <div>\', escape=False)\nresponse.write(form.custom.widget.image17)\nresponse.write(\'</div>\\nImage Optional: <div>\', escape=False)\nresponse.write(form.custom.widget.image27)\nresponse.write(\'</div>\\nImage Optional: <div>\', escape=False)\nresponse.write(form.cusotm.widget.image37)\nresponse.write(\'</div>\\nDate and Time of Birth: <div>\', escape=False)\nresponse.write(form.custom.widget.dob7)\nresponse.write(\'</div>\\nAge: <div>\', escape=False)\nresponse.write(form.custom.widget.age7)\nresponse.write(\'</div>\\nPlace of birth: <div>\', escape=False)\nresponse.write(form.cusotm.widget.placebirth7)\nresponse.write(\'</div>\\nBiodata: <div>\', escape=False)\nresponse.write(form.custom.widget.biodata7)\nresponse.write(\'</div>\\nOccupation Type: <div>\', escape=False)\nresponse.write(form.custom.widget.occupation_type7)\nresponse.write(\'</div>\\nOccupation: <div>\', escape=False)\nresponse.write(form.custom.widget.occupation7)\nresponse.write(\'</div>\\nIncome: <div>\', escape=False)\nresponse.write(form.custom.widget.income7)\nresponse.write(\'</div>\\nDegree: <div>\', escape=False)\nresponse.write(form.custom.widget.education7)\nresponse.write(\'</div>\\nDescribe your Education: <div>\', escape=False)\nresponse.write(form.custom.widget.education_description7)\nresponse.write(\'</div>\\nComplexion: <div>\', escape=False)\nresponse.write(form.custom.widget.complexion7)\nresponse.write(\'</div>\\nHeight: <div>\', escape=False)\nresponse.write(form.custom.widget.height7)\nresponse.write(\'</div>\\nWeight: <div>\', escape=False)\nresponse.write(form.custom.widget.weight7)\nresponse.write(\'</div>\\nDisability: <div>\', escape=False)\nresponse.write(form.custom.widget.disability7)\nresponse.write(\'</div>\\nState: <div>\', escape=False)\nresponse.write(form.custom.widget.state_live7)\nresponse.write(\'</div>\\nAddress: <div>\', escape=False)\nresponse.write(form.custom.widget.address7)\nresponse.write(\'</div>\\nMobile No.: <div>\', escape=False)\nresponse.write(form.custom.widget.phone_no7)\nresponse.write(\'</div>\\nCaste Type: <div>\', escape=False)\nresponse.write(form.custom.widget.caste_type7)\nresponse.write(\'</div>\\nCaste: <div>\', escape=False)\nresponse.write(form.custom.widget.caste7)\nresponse.write(\'</div>\\nGotra: <div>\', escape=False)\nresponse.write(form.custom.widget.gotra7)\nresponse.write(\'</div>\\nManglik: <div>\', escape=False)\nresponse.write(form.custom.widget.manglik7)\nresponse.write("</div>\\nMonther\'s Name: <div>", escape=False)\nresponse.write(form.custom.widget.mother_name7)\nresponse.write("</div>\\nMonther\'s Occupation: <div>", escape=False)\nresponse.write(form.custom.widget.mother_occupation7)\nresponse.write("</div>\\nFather\'s Name: <div>", escape=False)\nresponse.write(form.custom.widget.father_name7)\nresponse.write("</div>\\nFather\'s Occupation: <div>", escape=False)\nresponse.write(form.custom.widget.father_occupation7)\nresponse.write(\'</div>\\nNumber of Siblings: <div>\', escape=False)\nresponse.write(form.custom.widget.sibling_no7)\nresponse.write(\'</div>\\nMarital Status: <div>\', escape=False)\nresponse.write(form.custom.widget.marital_status7)\nresponse.write(\'</div>\\n\', escape=False)\nresponse.write(form.custom.submit)\nresponse.write(\'\\n\', escape=False)\nresponse.write(form.custom.end)\nresponse.write(\'\\n\', escape=False)\nresponse.write(\'\\n    </div>\\n    <!-- end #content -->\\n    <div id="sidebar">\\n     <ul>\\n      <li>\\n       <h2>\\n        How To Boil Water\\n       </h2>\\n       <p>\\n        Take water in a pot and put the pot on flame.\\n       </p>\\n      </li>\\n      <li>\\n       <h2>\\n        All time favorites\\n       </h2>\\n       <ul>\\n        <li>\\n         <a href="https://www.google.co.in/url?sa=t&rct=j&q=&esrc=s&source=web&cd=1&cad=rja&uact=8&ved=0ahUKEwjigaGl8-XLAhUUVI4KHacWDosQFggcMAA&url=http%3A%2F%2Fwww.vegrecipesofindia.com%2Faloo-paratha-indian-bread-stuffed-with-potato-filling%2F&usg=AFQjCNFNY-3ios-RQcXprUaW1A30qk99qg">\\n          Aloo Paratha\\n         </a>\\n        </li>\\n        <li>\\n         <a href="http://www.vegrecipesofindia.com/paneer-tikka-recipe-paneer-tikka/">\\n          Paneer Tikka\\n         </a>\\n        </li>\\n        <li>\\n         <a href="https://www.google.co.in/url?sa=t&rct=j&q=&esrc=s&source=web&cd=6&cad=rja&uact=8&ved=0ahUKEwj-0KK49OXLAhWJcI4KHRlQB_UQFghGMAU&url=http%3A%2F%2Fwww.vegrecipesofindia.com%2Fbiryani-recipes-veg-biryani-recipes%2F&usg=AFQjCNFTd1GKabU16MhD_O2xG4TND7gr9g">\\n          Biryani\\n         </a>\\n        </li>\\n        <li>\\n         <a href="https://www.google.co.in/url?sa=t&rct=j&q=&esrc=s&source=web&cd=1&cad=rja&uact=8&sqi=2&ved=0ahUKEwjt6eC_subLAhVPc44KHVKcDOgQFggbMAA&url=http%3A%2F%2Fwww.vegrecipesofindia.com%2Fmasala-dosa-recipe-how-to-make-masala-dosa-recipe%2F&usg=AFQjCNFIy0xsyW_sVxjEwWX9t60FAsfqqQ&bvm=bv.118353311,d.c2E">\\n          Masala Dosa\\n         </a>\\n        </li>\\n       </ul>\\n      </li>\\n<!--      <li>\\n       <h2>\\n        Blogroll\\n       </h2>\\n       <ul>\\n        <li>\\n         <a href="#">\\n          Phasellus Pellentesque\\n         </a>\\n         <span>\\n          Lorem Ipsum Dolor Sit Amit\\n         </span>\\n        </li>\\n        <li>\\n         <a href="#">\\n          Consectetuer Adipiscing\\n         </a>\\n         <span>\\n          Lorem Ipsum Dolor Sit Amit\\n         </span>\\n        </li>\\n        <li>\\n         <a href="#">\\n          Urna Congue Rutrum\\n         </a>\\n         <span>\\n          Lorem Ipsum Dolor Sit Amit\\n         </span>\\n        </li>\\n       </ul>\\n      </li>\\n      <li>\\n       <h2>\\n        Archives\\n       </h2>\\n       <ul>\\n        <li>\\n         <a href="#">\\n          December 2007\\n         </a>\\n         &nbsp;(29)\\n         <span>\\n          Lorem Ipsum Dolor Sit Amit\\n         </span>\\n        </li>\\n        <li>\\n         <a href="#">\\n          November 2007\\n         </a>\\n         &nbsp;(30)\\n         <span>\\n          Lorem Ipsum Dolor Sit Amit\\n         </span>\\n        </li>\\n        <li>\\n         <a href="#">\\n          October 2007\\n         </a>\\n         &nbsp;(31)\\n         <span>\\n          Lorem Ipsum Dolor Sit Amit\\n         </span>\\n        </li>\\n       </ul>\\n      </li>\\n     </ul>\\n    </div>\\n    <!-- end #sidebar -->\\n<!--    <div style="clear: both;">\\n     &nbsp;\\n    </div>\\n   </div>-->\\n   <!-- end #page -->\\n      <!--\\n   <div id="footer">\\n    <p>\\n     Copyright (c) 2008 Sitename.com. All rights reserved. Design by\\n     <a href="http://www.freecsstemplates.org/">\\n      Free CSS Templates\\n     </a>\\n     .\\n    </p>\\n   </div>-->\\n   <!-- end #footer -->\\n  </div>\\n </body>\\n</html>\\n\', escape=False)'
p7
sS'snapshot'
p8
(dp9
sS'traceback'
p10
S'Traceback (most recent call last):\n  File "/home/nidhi/Desktop/web2py/gluon/restricted.py", line 227, in restricted\n    exec ccode in environment\n  File "/home/nidhi/Desktop/web2py/applications/MatrimonyNew/views/default/upload_profile.html", line 50, in <module>\nAttributeError: \'SQLFORM\' object has no attribute \'cusotm\'\n'
p11
s.