(dp1
S'output'
p2
S"<type 'exceptions.ValueError'> time data '' does not match format '%Y-%m-%d %H:%M:%S'"
p3
sS'layer'
p4
S'/home/nidhi/Desktop/web2py/applications/MatrimonyNew/controllers/default.py'
p5
sS'code'
p6
S'# -*- coding: utf-8 -*-\n# this file is released under public domain and you can use without limitations\nfrom datetime import date\nfrom datetime import datetime\n#########################################################################\n## This is a sample controller\n## - index is the default action of any application\n## - user is required for authentication and authorization\n## - download is for downloading files uploaded in the db (does streaming)\n#########################################################################\n@auth.requires_login()\ndef index():\n    """\n    example action using the internationalization operator T and flash\n    rendered by views/default/index.html or views/generic.html\n\n    if you need a simple wiki simply replace the two lines below with:\n    return auth.wiki()\n    """\n    response.flash="Welcome to TheChef"\n    if len(request.args): page=int(request.args[0])\n    else: page=0\n    items_per_page=9\n    limitby=(page*items_per_page,(page+1)*items_per_page+1)\n    rows=db(db.profile).select(limitby=limitby)\n    return dict(rows=rows,page=page,items_per_page=items_per_page)\n\n\ndef user():\n    """\n    exposes:\n    http://..../[app]/default/user/login\n    http://..../[app]/default/user/logout\n    http://..../[app]/default/user/register\n    http://..../[app]/default/user/profile\n    http://..../[app]/default/user/retrieve_password\n    http://..../[app]/default/user/change_password\n    http://..../[app]/default/user/bulk_register\n    use @auth.requires_login()\n        @auth.requires_membership(\'group name\')\n        @auth.requires_permission(\'read\',\'table name\',record_id)\n    to decorate functions that need access control\n    also notice there is http://..../[app]/appadmin/manage/auth to allow administrator to manage users\n    """\n    return dict(form=auth())\n\n\n@cache.action()\ndef download():\n    """\n    allows downloading of uploaded files\n    http://..../[app]/default/download/[filename]\n    """\n    return response.download(request, db)\n\n\ndef call():\n    """\n    exposes services. for example:\n    http://..../[app]/default/call/jsonrpc\n    decorate with @services.jsonrpc the functions to expose\n    supports xml, json, xmlrpc, jsonrpc, amfrpc, rss, csv\n    """\n    return service()\n\n@auth.requires_login()\ndef upload_profile():\n    response.flash="Upload your profile"\n    form=SQLFORM(db.profile)\n    if form.process().accepted:\n        response.flash="Your profile is uploaded"\n        redirect(URL(\'default\',\'index\'))\n    elif form.errors:\n        response.flash=\'Please check you filled all the field correctly\'\n    return dict(form=form)\n\ndef edit_profile():\n    prf=db.profile(request.args(0)) or redirect(URL(\'error\'))\n    form=SQLFORM(db.profile,prf, deletable=True)\n    if form.validate():\n        if form.deleted:\n            db(db.profile.id==profile.id).delete()\n            redirect(URL(\'default\',\'index\'))\n        else:\n            prf.update_record(**dict(form.vars))\n            response.flash=\'Changes Accepted\'\n            redirect(URL(\'default\',\'index\'))\n    return dict(form=form)\n\n\ndef download():\n    return response.download(request, db)\n\ndef show_profile():\n    prf=db.profile(request.args(0)) or redirect(URL(\'error\'))\n    return dict(profile=prf)\n\ndef my_profile():\n    prf=db.profile(user_id=auth.user_id) or redirect(URL(\'error\'))\n    return dict(profile=prf)\n\ndef calculate_age():\n    dob=request.vars.dob7\n    dob=datetime.strptime(dob, "%Y-%m-%d %H:%M:%S")\n    today=date.today()\n    age=today.year-dob.year\n    #alert("hello")\n    return 4\n\nresponse._vars=response._caller(calculate_age)\n'
p7
sS'snapshot'
p8
(dp9
sS'traceback'
p10
S'Traceback (most recent call last):\n  File "/home/nidhi/Desktop/web2py/gluon/restricted.py", line 227, in restricted\n    exec ccode in environment\n  File "/home/nidhi/Desktop/web2py/applications/MatrimonyNew/controllers/default.py", line 110, in <module>\n  File "/home/nidhi/Desktop/web2py/gluon/globals.py", line 417, in <lambda>\n    self._caller = lambda f: f()\n  File "/home/nidhi/Desktop/web2py/applications/MatrimonyNew/controllers/default.py", line 104, in calculate_age\n    dob=datetime.strptime(dob, "%Y-%m-%d %H:%M:%S")\n  File "/usr/lib/python2.7/_strptime.py", line 332, in _strptime\n    (data_string, format))\nValueError: time data \'\' does not match format \'%Y-%m-%d %H:%M:%S\'\n'
p11
s.