(dp1
S'output'
p2
S"<type 'exceptions.NameError'> name 'recepies' is not defined"
p3
sS'layer'
p4
S'/home/nidhi/Desktop/web2py/applications/MatrimonyNew/views/default/index.html'
p5
sS'code'
p6
S'response.write(\'<!DOCTYPE html PUBLIC "-//W3C//DTD XHTML 1.0 Strict//EN" "http://www.w3.org/TR/xhtml1/DTD/xhtml1-strict.dtd">\\n<!--\\nDesign by Free CSS Templates\\nhttp://www.freecsstemplates.org\\nReleased for free under a Creative Commons Attribution 2.5 License\\n\\nName       : Pressurized\\nDescription: A two-column, fixed-width design with dark color scheme.\\nVersion    : 1.0\\nReleased   : 20081103\\n\\n-->\\n<html xmlns="http://www.w3.org/1999/xhtml">\\n <head>\\n  <title>\\n   \', escape=False)\nresponse.write(response.title or request.application)\nresponse.write(\'\\n  </title>\\n  \', escape=False)\nresponse.files.append(URL(request.application,\'static\',\'plugin_layouts/layouts/Pressurized/style.css\'))\nresponse.write(\'\\n  \', escape=False)\nresponse.files.append(URL(\'static\',\'plugin_layouts/superfish.js\'))\nresponse.write(\'\\n  \', escape=False)\nresponse.write(\'<script type="text/javascript"><!--\\n    // These variables are used by the web2py_ajax_init function in web2py_ajax.js (which is loaded below).\\n    var w2p_ajax_confirm_message = "\', escape=False)\nresponse.write(T(\'Are you sure you want to delete this object?\'))\nresponse.write(\'";\\n    var w2p_ajax_disable_with_message = "\', escape=False)\nresponse.write(T(\'Working...\'))\nresponse.write(\'";\\n    var w2p_ajax_date_format = "\', escape=False)\nresponse.write(T(\'%Y-%m-%d\'))\nresponse.write(\'";\\n    var w2p_ajax_datetime_format = "\', escape=False)\nresponse.write(T(\'%Y-%m-%d %H:%M:%S\'))\nresponse.write(\'";\\n    var ajax_error_500 = \\\'\', escape=False)\nresponse.write(T.M(\'An error occured, please [[reload %s]] the page\') % URL(args=request.args, vars=request.get_vars))\nresponse.write("\'\\n    //--></script>\\n", escape=False)\nresponse.files.insert(0,URL(\'static\',\'js/jquery.js\'))\nresponse.files.insert(1,URL(\'static\',\'css/calendar.css\'))\nresponse.files.insert(2,URL(\'static\',\'js/calendar.js\'))\nresponse.files.insert(3,URL(\'static\',\'js/web2py.js\'))\nresponse.include_meta()\nresponse.include_files()\nresponse.write(\'\\n\', escape=False)\nresponse.write(\'\\n  <style>\\nul.web2py-menu-vertical { width: 150px; position: relative; top:1em; left:1em;  z-index:30; border:0; margin:0; padding: 0; list-style: none; text-decoration: none;}\\nul.web2py-menu-vertical li { margin:0; padding:0; border:0; width: 150px; background: black; text-align:left;}\\nul.web2py-menu-vertical li a { margin:0; padding: 1px 3px 1px 3px; border:0; width: 144px; color: white; font-size:12px;}\\ndiv.flash { position: fixed; float: right; padding: 10px; top: 10px; right: 30px; opacity: 0.75; margin: 10px 10px 10px 10px; text-align: center; clear: both; color: #fff; font-size: 11pt; text-align: center; vertical-align: middle; cursor: pointer; background: black; border: 2px solid #fff; -moz-border-radius: 5px; -webkit-border-radius: 5px; z-index: 2; }\\ndiv.error { background-color: red; color: white; padding: 3px; }\\n.auth_navbar { text-align:right; z-index:20; position: absolute; top: 2px; right:30px; border:0; padding:0 }\\n      .auth_navbar a{color:#ffeeee; font-style:bold;font-family:times; font-size:1.4}\\n  </style>\\n </head>\\n <body>\\n  <!-- start header -->\\n     <div style="color:#ffeeee; font-style:bold;font-family:times; font-size:1.4">\', escape=False)\ntry:\n    response.write(auth.navbar(action=URL(\'default\',\'user\')))\nexcept:pass\nresponse.write(\'</div>\\n\\n  <div id="wrapper">\\n   <div id="header">\\n    <div id="logo">\\n     <h1>\\n      \', escape=False)\nresponse.write(response.title or request.application)\nresponse.write(\'\\n     </h1>\\n<!--     <p>\\n      design by\\n      <a href="http://www.freecsstemplates.org/">\\n       Free CSS Templates\\n      </a>\\n     </p> -->\\n    </div>\\n   </div>\\n   <!-- end #header -->\\n   <div id="menu">\\n    \', escape=False)\nresponse.write(MENU(response.menu,_class=\'web2py-menu\'))\nresponse.write(\'\\n    <script>\\n      jQuery(document).ready(function(){jQuery(\\\'ul.web2py-menu\\\').superfish({delay:400});});\\n    </script>\\n   </div>\\n   <!-- end #menu -->\\n   <div id="page">\\n    <div id="content">\\n     <div class="flash">\', escape=False)\nresponse.write(response.flash or \'\')\nresponse.write(\'</div>\\n     \', escape=False)\nresponse.write(\'\\n\\n\', escape=False)\nresponse.write(\'\\n    <header class="container-fluid background">\\n      <div class="jumbotron text-center">\\n        \', escape=False)\nif response.title:\n    response.write(\'\\n        <h1 style="margin-bottom:10px">Explore!\\n          <small>\', escape=False)\n    response.write(response.subtitle or \'\')\n    response.write(\'</small></h1>\\n        \', escape=False)\n    pass\nresponse.write(\'\\n      </div>\\n    </header>\\n\', escape=False)\nresponse.write(\'\\n<form>\\n    <input type="hidden" id="id" name="id" value=""/></form>\\n<style>\\n    table th\\n    {\\n        color:#ffeeee;\\n    }\\n</style>\\n<table width="100%" style="border-collapse: collapse; border:1; border-style:solid">\\n    <tr width="100%" style="border:1; border-style:solid">\\n        <th width="15%" style="padding-bottom: 1em; font-size:2em;font-family:if;color:#ff6666">Title</th>\\n        <th width="60%" style="padding-bottom: 1em; font-size:2em;font-family:if;color:#ff6666">Description</th>\\n        <th  style="padding-bottom: 1em; font-size:2em;font-family:if;color:#ff6666">Image</th>\\n    </tr>\\n <!--   <tr width="100%">-->\\n    <tr widht="100%">\\n        \', escape=False)\nfor prf in rows:\n    response.write(\'\\n        <td width="15%" style="padding-bottom: 2em; font-size:3em">\', escape=False)\n    response.write(A(prf.name,_href=URL("show",args=prf.id)))\n    response.write(\' </td>\\n        <td width="60%" style="padding-bottom: 2em;padding-left:2em; font-size: 1.5em"><!--\', escape=False)\n    response.write(recepies.description)\n    response.write(\'--> </td>\\n        <td style="padding-bottom: 2em;padding-bottom: 1em; padding-right: 2em"> <!--<img width="300px" height="200px" src="\', escape=False)\n    response.write(URL(\'download\', args=recepies.image))\n    response.write(\'">--></td>\\n       <!--<td class="comLike"><span id="recepies\', escape=False)\n    response.write(recepies.id)\n    response.write(\'">\', escape=False)\n    response.write(recepies.numb_likes)\n    response.write(\'</span>Likes\\n            <br>\\n            <br>\\n            <button onclick="jQuery(\\\'#id\\\').val(\\\'\', escape=False)\n    response.write(recepies.id)\n    response.write("\');\\n                             ajax(\'vote\',[\'id\'],\'", escape=False)\n    response.write(recepies.id)\n    response.write(\'\\\');window.location.reload();">\\n                Like\\n            </button>\\n        </td>-->\\n    </tr>\\n    \', escape=False)\n    pass\nresponse.write(\'\\n</table>\\n\', escape=False)\nresponse.write(\'\\n    </div>\\n    <!-- end #content -->\\n    <div id="sidebar">\\n     <ul>\\n      <li>\\n       <h2>\\n        How To Boil Water\\n       </h2>\\n       <p>\\n        Take water in a pot and put the pot on flame.\\n       </p>\\n      </li>\\n      <li>\\n       <h2>\\n        All time favorites\\n       </h2>\\n       <ul>\\n        <li>\\n         <a href="https://www.google.co.in/url?sa=t&rct=j&q=&esrc=s&source=web&cd=1&cad=rja&uact=8&ved=0ahUKEwjigaGl8-XLAhUUVI4KHacWDosQFggcMAA&url=http%3A%2F%2Fwww.vegrecipesofindia.com%2Faloo-paratha-indian-bread-stuffed-with-potato-filling%2F&usg=AFQjCNFNY-3ios-RQcXprUaW1A30qk99qg">\\n          Aloo Paratha\\n         </a>\\n        </li>\\n        <li>\\n         <a href="http://www.vegrecipesofindia.com/paneer-tikka-recipe-paneer-tikka/">\\n          Paneer Tikka\\n         </a>\\n        </li>\\n        <li>\\n         <a href="https://www.google.co.in/url?sa=t&rct=j&q=&esrc=s&source=web&cd=6&cad=rja&uact=8&ved=0ahUKEwj-0KK49OXLAhWJcI4KHRlQB_UQFghGMAU&url=http%3A%2F%2Fwww.vegrecipesofindia.com%2Fbiryani-recipes-veg-biryani-recipes%2F&usg=AFQjCNFTd1GKabU16MhD_O2xG4TND7gr9g">\\n          Biryani\\n         </a>\\n        </li>\\n        <li>\\n         <a href="https://www.google.co.in/url?sa=t&rct=j&q=&esrc=s&source=web&cd=1&cad=rja&uact=8&sqi=2&ved=0ahUKEwjt6eC_subLAhVPc44KHVKcDOgQFggbMAA&url=http%3A%2F%2Fwww.vegrecipesofindia.com%2Fmasala-dosa-recipe-how-to-make-masala-dosa-recipe%2F&usg=AFQjCNFIy0xsyW_sVxjEwWX9t60FAsfqqQ&bvm=bv.118353311,d.c2E">\\n          Masala Dosa\\n         </a>\\n        </li>\\n       </ul>\\n      </li>\\n<!--      <li>\\n       <h2>\\n        Blogroll\\n       </h2>\\n       <ul>\\n        <li>\\n         <a href="#">\\n          Phasellus Pellentesque\\n         </a>\\n         <span>\\n          Lorem Ipsum Dolor Sit Amit\\n         </span>\\n        </li>\\n        <li>\\n         <a href="#">\\n          Consectetuer Adipiscing\\n         </a>\\n         <span>\\n          Lorem Ipsum Dolor Sit Amit\\n         </span>\\n        </li>\\n        <li>\\n         <a href="#">\\n          Urna Congue Rutrum\\n         </a>\\n         <span>\\n          Lorem Ipsum Dolor Sit Amit\\n         </span>\\n        </li>\\n       </ul>\\n      </li>\\n      <li>\\n       <h2>\\n        Archives\\n       </h2>\\n       <ul>\\n        <li>\\n         <a href="#">\\n          December 2007\\n         </a>\\n         &nbsp;(29)\\n         <span>\\n          Lorem Ipsum Dolor Sit Amit\\n         </span>\\n        </li>\\n        <li>\\n         <a href="#">\\n          November 2007\\n         </a>\\n         &nbsp;(30)\\n         <span>\\n          Lorem Ipsum Dolor Sit Amit\\n         </span>\\n        </li>\\n        <li>\\n         <a href="#">\\n          October 2007\\n         </a>\\n         &nbsp;(31)\\n         <span>\\n          Lorem Ipsum Dolor Sit Amit\\n         </span>\\n        </li>\\n       </ul>\\n      </li>\\n     </ul>\\n    </div>\\n    <!-- end #sidebar -->\\n<!--    <div style="clear: both;">\\n     &nbsp;\\n    </div>\\n   </div>-->\\n   <!-- end #page -->\\n      <!--\\n   <div id="footer">\\n    <p>\\n     Copyright (c) 2008 Sitename.com. All rights reserved. Design by\\n     <a href="http://www.freecsstemplates.org/">\\n      Free CSS Templates\\n     </a>\\n     .\\n    </p>\\n   </div>-->\\n   <!-- end #footer -->\\n  </div>\\n </body>\\n</html>\\n\', escape=False)'
p7
sS'snapshot'
p8
(dp9
sS'traceback'
p10
S'Traceback (most recent call last):\n  File "/home/nidhi/Desktop/web2py/gluon/restricted.py", line 227, in restricted\n    exec ccode in environment\n  File "/home/nidhi/Desktop/web2py/applications/MatrimonyNew/views/default/index.html", line 50, in <module>\nNameError: name \'recepies\' is not defined\n'
p11
s.