(dp1
S'output'
p2
S"<type 'exceptions.AttributeError'> 'str' object has no attribute 'items'"
p3
sS'layer'
p4
S'/home/nikita/web2py/applications/TheChef/views/default/show.html'
p5
sS'code'
p6
S'response.write(\'<!DOCTYPE html PUBLIC "-//W3C//DTD XHTML 1.0 Strict//EN" "http://www.w3.org/TR/xhtml1/DTD/xhtml1-strict.dtd">\\n<!--\\nDesign by Free CSS Templates\\nhttp://www.freecsstemplates.org\\nReleased for free under a Creative Commons Attribution 2.5 License\\n\\nName       : Pressurized\\nDescription: A two-column, fixed-width design with dark color scheme.\\nVersion    : 1.0\\nReleased   : 20081103\\n\\n-->\\n<html xmlns="http://www.w3.org/1999/xhtml">\\n <head>\\n  <title>\\n   \', escape=False)\nresponse.write(response.title or request.application)\nresponse.write(\'\\n  </title>\\n  \', escape=False)\nresponse.files.append(URL(request.application,\'static\',\'plugin_layouts/layouts/Pressurized/style.css\'))\nresponse.write(\'\\n  \', escape=False)\nresponse.files.append(URL(\'static\',\'plugin_layouts/superfish.js\'))\nresponse.write(\'\\n  \', escape=False)\nresponse.write(\'<script type="text/javascript"><!--\\n    // These variables are used by the web2py_ajax_init function in web2py_ajax.js (which is loaded below).\\n    var w2p_ajax_confirm_message = "\', escape=False)\nresponse.write(T(\'Are you sure you want to delete this object?\'))\nresponse.write(\'";\\n    var w2p_ajax_disable_with_message = "\', escape=False)\nresponse.write(T(\'Working...\'))\nresponse.write(\'";\\n    var w2p_ajax_date_format = "\', escape=False)\nresponse.write(T(\'%Y-%m-%d\'))\nresponse.write(\'";\\n    var w2p_ajax_datetime_format = "\', escape=False)\nresponse.write(T(\'%Y-%m-%d %H:%M:%S\'))\nresponse.write(\'";\\n    var ajax_error_500 = \\\'\', escape=False)\nresponse.write(T.M(\'An error occured, please [[reload %s]] the page\') % URL(args=request.args, vars=request.get_vars))\nresponse.write("\'\\n    //--></script>\\n", escape=False)\nresponse.files.insert(0,URL(\'static\',\'js/jquery.js\'))\nresponse.files.insert(1,URL(\'static\',\'css/calendar.css\'))\nresponse.files.insert(2,URL(\'static\',\'js/calendar.js\'))\nresponse.files.insert(3,URL(\'static\',\'js/web2py.js\'))\nresponse.include_meta()\nresponse.include_files()\nresponse.write(\'\\n\', escape=False)\nresponse.write(\'\\n  <style>\\nul.web2py-menu-vertical { width: 150px; position: relative; top:1em; left:1em;  z-index:30; border:0; margin:0; padding: 0; list-style: none; text-decoration: none;}\\nul.web2py-menu-vertical li { margin:0; padding:0; border:0; width: 150px; background: black; text-align:left;}\\nul.web2py-menu-vertical li a { margin:0; padding: 1px 3px 1px 3px; border:0; width: 144px; color: white; font-size:12px;}\\ndiv.flash { position: fixed; float: right; padding: 10px; top: 10px; right: 30px; opacity: 0.75; margin: 10px 10px 10px 10px; text-align: center; clear: both; color: #fff; font-size: 11pt; text-align: center; vertical-align: middle; cursor: pointer; background: black; border: 2px solid #fff; -moz-border-radius: 5px; -webkit-border-radius: 5px; z-index: 2; }\\ndiv.error { background-color: red; color: white; padding: 3px; }\\n.auth_navbar { text-align:right; z-index:20; position: absolute; top: 2px; right:30px; border:0; padding:0 }\\n  </style>\\n </head>\\n <body>\\n  <!-- start header -->\\n  \', escape=False)\ntry:\n    response.write(auth.navbar(action=URL(\'default\',\'user\')))\nexcept:pass\nresponse.write(\'\\n\\n  <div id="wrapper">\\n   <div id="header">\\n    <div id="logo">\\n     <h1>\\n      \', escape=False)\nresponse.write(response.title or request.application)\nresponse.write(\'\\n     </h1>\\n<!--     <p>\\n      design by\\n      <a href="http://www.freecsstemplates.org/">\\n       Free CSS Templates\\n      </a>\\n     </p> -->\\n    </div>\\n   </div>\\n   <!-- end #header -->\\n   <div id="menu">\\n    \', escape=False)\nresponse.write(MENU(response.menu,_class=\'web2py-menu\'))\nresponse.write(\'\\n    <script>\\n      jQuery(document).ready(function(){jQuery(\\\'ul.web2py-menu\\\').superfish({delay:400});});\\n    </script>\\n   </div>\\n   <!-- end #menu -->\\n   <div id="page">\\n    <div id="content">\\n     <div class="flash">\', escape=False)\nresponse.write(response.flash or \'\')\nresponse.write(\'</div>\\n     \', escape=False)\nresponse.write(\'\\n<h1 align=center style="font-size:3em; margin:8px">\', escape=False)\nresponse.write(recepies.title)\nresponse.write(\'</h1>\\n<table>\\n    <tr>\\n        <td style="padding: 1em"><img style="float:left; width:300px; height:200px; border-style:" src="\', escape=False)\nresponse.write(URL(\'download\', args=recepies.image))\nresponse.write(\'" ></td>\\n        <td style="padding: 1em; font-size:2em"><p>\', escape=False)\nresponse.write(recepies.description)\nresponse.write(\'</p></td>\\n    </tr>\\n</table>\\n<div style="padding:2em; color:#ffff33; font-size:2em; font-style:italic; font-family:Times; background-color:#ff8080; opacity:50%; border-radius:13px">\', escape=False)\nresponse.write(recepies.recepie)\nresponse.write(\'</div>\\n<table>\\n    <tr>\\n<td>\', escape=False)\nresponse.write(A(\'Like\', callback=URL(\'add_like\',vars="recepies.id")))\nresponse.write(\'</td>\\n        <td>\', escape=False)\nresponse.write(recepies.numb_likes)\nresponse.write(\'</td>\\n    </tr>\\n</table>\\n\', escape=False)\nresponse.write(\'\\n    </div>\\n    <!-- end #content -->\\n    <div id="sidebar">\\n     <ul>\\n      <li>\\n       <h2>\\n        Aliquam tempus\\n       </h2>\\n       <p>\\n        Mauris vitae nisl nec metus placerat perdiet est. Phasellus dapibus semper urna ornare consectetuer hendrerit.\\n       </p>\\n      </li>\\n      <li>\\n       <h2>\\n        Categories\\n       </h2>\\n       <ul>\\n        <li>\\n         <a href="#">\\n          Uncategorized\\n         </a>\\n         (3)\\n         <span>\\n          Lorem Ipsum Dolor Sit Amit\\n         </span>\\n        </li>\\n        <li>\\n         <a href="#">\\n          Lorem Ipsum\\n         </a>\\n         (42)\\n         <span>\\n          Lorem Ipsum Dolor Sit Amit\\n         </span>\\n        </li>\\n        <li>\\n         <a href="#">\\n          Urna Congue Rutrum\\n         </a>\\n         (28)\\n         <span>\\n          Lorem Ipsum Dolor Sit Amit\\n         </span>\\n        </li>\\n        <li>\\n         <a href="#">\\n          Vivamus Fermentum\\n         </a>\\n         (13)\\n         <span>\\n          Lorem Ipsum Dolor Sit Amit\\n         </span>\\n        </li>\\n       </ul>\\n      </li>\\n      <li>\\n       <h2>\\n        Blogroll\\n       </h2>\\n       <ul>\\n        <li>\\n         <a href="#">\\n          Phasellus Pellentesque\\n         </a>\\n         <span>\\n          Lorem Ipsum Dolor Sit Amit\\n         </span>\\n        </li>\\n        <li>\\n         <a href="#">\\n          Consectetuer Adipiscing\\n         </a>\\n         <span>\\n          Lorem Ipsum Dolor Sit Amit\\n         </span>\\n        </li>\\n        <li>\\n         <a href="#">\\n          Urna Congue Rutrum\\n         </a>\\n         <span>\\n          Lorem Ipsum Dolor Sit Amit\\n         </span>\\n        </li>\\n       </ul>\\n      </li>\\n      <li>\\n       <h2>\\n        Archives\\n       </h2>\\n       <ul>\\n        <li>\\n         <a href="#">\\n          December 2007\\n         </a>\\n         &nbsp;(29)\\n         <span>\\n          Lorem Ipsum Dolor Sit Amit\\n         </span>\\n        </li>\\n        <li>\\n         <a href="#">\\n          November 2007\\n         </a>\\n         &nbsp;(30)\\n         <span>\\n          Lorem Ipsum Dolor Sit Amit\\n         </span>\\n        </li>\\n        <li>\\n         <a href="#">\\n          October 2007\\n         </a>\\n         &nbsp;(31)\\n         <span>\\n          Lorem Ipsum Dolor Sit Amit\\n         </span>\\n        </li>\\n       </ul>\\n      </li>\\n     </ul>\\n    </div>\\n    <!-- end #sidebar -->\\n    <div style="clear: both;">\\n     &nbsp;\\n    </div>\\n   </div>\\n   <!-- end #page -->\\n   <div id="footer">\\n    <p>\\n     Copyright (c) 2008 Sitename.com. All rights reserved. Design by\\n     <a href="http://www.freecsstemplates.org/">\\n      Free CSS Templates\\n     </a>\\n     .\\n    </p>\\n   </div>\\n   <!-- end #footer -->\\n  </div>\\n </body>\\n</html>\\n\', escape=False)'
p7
sS'snapshot'
p8
(dp9
sS'traceback'
p10
S'Traceback (most recent call last):\n  File "/home/nikita/web2py/gluon/restricted.py", line 227, in restricted\n    exec ccode in environment\n  File "/home/nikita/web2py/applications/TheChef/views/default/show.html", line 46, in <module>\n  File "/home/nikita/web2py/gluon/html.py", line 349, in URL\n    for (key, vals) in sorted(vars.items()):\nAttributeError: \'str\' object has no attribute \'items\'\n'
p11
s.